; ModuleID = '45/392.c'
source_filename = "45/392.c"
target datalayout = "e-m:e-p270:32:32-p271:32:32-p272:64:64-i64:64-f80:128-n8:16:32:64-S128"
target triple = "x86_64-pc-linux-gnu"

@.str = private unnamed_addr constant [3 x i8] c"%s\00", align 1
@.str.1 = private unnamed_addr constant [3 x i8] c"%d\00", align 1

; Function Attrs: noinline nounwind uwtable
define dso_local void @main() #0 {
  %1 = alloca [51 x i8], align 16
  %2 = alloca [51 x i8], align 16
  %3 = alloca i8*, align 8
  %4 = alloca i8*, align 8
  %5 = alloca i32, align 4
  %6 = alloca i32, align 4
  store i32 0, i32* %5, align 4
  %7 = getelementptr inbounds [51 x i8], [51 x i8]* %1, i64 0, i64 0
  %8 = call i32 (i8*, ...) @__isoc99_scanf(i8* getelementptr inbounds ([3 x i8], [3 x i8]* @.str, i64 0, i64 0), i8* %7)
  %9 = getelementptr inbounds [51 x i8], [51 x i8]* %2, i64 0, i64 0
  %10 = call i32 (i8*, ...) @__isoc99_scanf(i8* getelementptr inbounds ([3 x i8], [3 x i8]* @.str, i64 0, i64 0), i8* %9)
  %11 = getelementptr inbounds [51 x i8], [51 x i8]* %1, i64 0, i64 0
  %12 = call i64 @strlen(i8* %11) #3
  %13 = trunc i64 %12 to i32
  store i32 %13, i32* %6, align 4
  %14 = getelementptr inbounds [51 x i8], [51 x i8]* %2, i64 0, i64 0
  store i8* %14, i8** %4, align 8
  br label %15

15:                                               ; preds = %57, %0
  %16 = load i8*, i8** %4, align 8
  %17 = load i8, i8* %16, align 1
  %18 = sext i8 %17 to i32
  %19 = icmp ne i32 %18, 0
  br i1 %19, label %20, label %60

20:                                               ; preds = %15
  %21 = getelementptr inbounds [51 x i8], [51 x i8]* %1, i64 0, i64 0
  store i8* %21, i8** %3, align 8
  br label %22

22:                                               ; preds = %49, %20
  %23 = load i8*, i8** %3, align 8
  %24 = load i8, i8* %23, align 1
  %25 = sext i8 %24 to i32
  %26 = icmp ne i32 %25, 0
  br i1 %26, label %27, label %52

27:                                               ; preds = %22
  %28 = load i8*, i8** %3, align 8
  %29 = load i8, i8* %28, align 1
  %30 = sext i8 %29 to i32
  %31 = load i8*, i8** %4, align 8
  %32 = load i8, i8* %31, align 1
  %33 = sext i8 %32 to i32
  %34 = icmp eq i32 %30, %33
  br i1 %34, label %35, label %47

35:                                               ; preds = %27
  %36 = load i8*, i8** %4, align 8
  %37 = getelementptr inbounds i8, i8* %36, i32 1
  store i8* %37, i8** %4, align 8
  %38 = load i8*, i8** %4, align 8
  %39 = getelementptr inbounds [51 x i8], [51 x i8]* %2, i64 0, i64 0
  %40 = ptrtoint i8* %38 to i64
  %41 = ptrtoint i8* %39 to i64
  %42 = sub i64 %40, %41
  %43 = load i32, i32* %6, align 4
  %44 = sext i32 %43 to i64
  %45 = sub nsw i64 %42, %44
  %46 = trunc i64 %45 to i32
  store i32 %46, i32* %5, align 4
  br label %48

47:                                               ; preds = %27
  br label %52

48:                                               ; preds = %35
  br label %49

49:                                               ; preds = %48
  %50 = load i8*, i8** %3, align 8
  %51 = getelementptr inbounds i8, i8* %50, i32 1
  store i8* %51, i8** %3, align 8
  br label %22

52:                                               ; preds = %47, %22
  %53 = load i32, i32* %5, align 4
  %54 = icmp ne i32 %53, 0
  br i1 %54, label %55, label %56

55:                                               ; preds = %52
  br label %60

56:                                               ; preds = %52
  br label %57

57:                                               ; preds = %56
  %58 = load i8*, i8** %4, align 8
  %59 = getelementptr inbounds i8, i8* %58, i32 1
  store i8* %59, i8** %4, align 8
  br label %15

60:                                               ; preds = %55, %15
  %61 = load i32, i32* %5, align 4
  %62 = call i32 (i8*, ...) @printf(i8* getelementptr inbounds ([3 x i8], [3 x i8]* @.str.1, i64 0, i64 0), i32 %61)
  ret void
}

declare dso_local i32 @__isoc99_scanf(i8*, ...) #1

; Function Attrs: nounwind readonly
declare dso_local i64 @strlen(i8*) #2

declare dso_local i32 @printf(i8*, ...) #1


!llvm.module.flags = !{!0}
!llvm.ident = !{!1}

!0 = !{i32 1, !"wchar_size", i32 4}
!1 = !{!"clang version 10.0.0-4ubuntu1 "}
